; Function Attrs: mustprogress uwtable
define dso_local void @_Z15luaL_checkstackP9lua_StateiPKc(ptr noundef %0, i32 noundef %1, ptr noundef %2) local_unnamed_addr #2 {
  %4 = tail call noundef i32 @_Z14lua_checkstackP9lua_Statei(ptr noundef %0, i32 noundef %1)
  %.not = icmp eq i32 %4, 0
  br i1 %.not, label %5, label %6

5:                                                ; preds = %3
  tail call void (ptr, ptr, ...) @_Z11luaL_errorLP9lua_StatePKcz(ptr noundef %0, ptr noundef nonnull @.str.10, ptr noundef %2) #11
  unreachable

6:                                                ; preds = %3
  ret void
}